target datalayout = "e-m:e-p270:32:32-p271:32:32-p272:64:64-i64:64-i128:128-f80:128-n8:16:32:64-S128"
target triple = "x86_64-unknown-linux-gnu"

%"class.icu_75::MeasureUnit" = type <{ %"class.icu_75::UObject", ptr, i16, i8, [5 x i8] }>
%"class.icu_75::UObject" = type { ptr }

@.str = private unnamed_addr constant [1 x i8] zeroinitializer, align 1

; Function Attrs: mustprogress nounwind uwtable
define noundef ptr @_ZNK6icu_7511MeasureUnit7getTypeEv(ptr noundef nonnull align 8 dereferenceable(19) %this) #0 align 2 {
entry:
  %retval = alloca ptr, align 8
  %this.addr = alloca ptr, align 8
  store ptr %this, ptr %this.addr, align 8
  %this1 = load ptr, ptr %this.addr, align 8
  %fTypeId = getelementptr inbounds %"class.icu_75::MeasureUnit", ptr %this1, i32 0, i32 3
  %0 = load i8, ptr %fTypeId, align 2
  %conv = sext i8 %0 to i32
  %cmp = icmp eq i32 %conv, -1
  br i1 %cmp, label %if.then, label %if.end

if.then:                                          ; preds = %entry
  store ptr @.str, ptr %retval, align 8
  br label %return

if.end:                                           ; preds = %entry
  %fTypeId2 = getelementptr inbounds %"class.icu_75::MeasureUnit", ptr %this1, i32 0, i32 3
  %1 = load i8, ptr %fTypeId2, align 2
  %idxprom = sext i8 %1 to i64
  %arrayidx = getelementptr inbounds [23 x ptr], ptr @_ZN6icu_75L6gTypesE, i64 0, i64 %idxprom
  %2 = load ptr, ptr %arrayidx, align 8
  store ptr %2, ptr %retval, align 8
  br label %return

return:                                           ; preds = %if.end, %if.then
  %3 = load ptr, ptr %retval, align 8
  ret ptr %3
}