; Function Attrs: mustprogress nofree norecurse nosync nounwind willreturn memory(argmem: read) uwtable
define noundef ptr @_ZNK6icu_7511MeasureUnit7getTypeEv(ptr nocapture noundef nonnull readonly align 8 dereferenceable(19) %this) local_unnamed_addr #10 align 2 {
entry:
  %fTypeId = getelementptr inbounds i8, ptr %this, i64 18
  %0 = load i8, ptr %fTypeId, align 2
  %cmp = icmp eq i8 %0, -1
  br i1 %cmp, label %return, label %if.end

if.end:                                           ; preds = %entry
  %idxprom = sext i8 %0 to i64
  %arrayidx = getelementptr inbounds [23 x ptr], ptr @_ZN6icu_75L6gTypesE, i64 0, i64 %idxprom
  %1 = load ptr, ptr %arrayidx, align 8
  br label %return

return:                                           ; preds = %entry, %if.end
  %retval.0 = phi ptr [ %1, %if.end ], [ @.str, %entry ]
  ret ptr %retval.0
}